target datalayout = "e-m:e-p270:32:32-p271:32:32-p272:64:64-i64:64-i128:128-f80:128-n8:16:32:64-S128"
target triple = "x86_64-pc-linux-gnu"

%struct.lua_TValue = type { %union.Value, [1 x i32], i32 }
%union.Value = type { ptr }

; Function Attrs: mustprogress nounwind uwtable
define internal noundef i32 @_ZL21luauF_vectornormalizeP9lua_StateP10lua_TValueS2_iS2_i(ptr noundef %0, ptr noundef %1, ptr noundef %2, i32 noundef %3, ptr noundef %4, i32 noundef %5) #0 {
  %7 = alloca i32, align 4
  %8 = alloca ptr, align 8
  %9 = alloca ptr, align 8
  %10 = alloca ptr, align 8
  %11 = alloca i32, align 4
  %12 = alloca ptr, align 8
  %13 = alloca i32, align 4
  %14 = alloca ptr, align 8
  %15 = alloca float, align 4
  %16 = alloca ptr, align 8
  %17 = alloca ptr, align 8
  store ptr %0, ptr %8, align 8, !tbaa !4
  store ptr %1, ptr %9, align 8, !tbaa !9
  store ptr %2, ptr %10, align 8, !tbaa !9
  store i32 %3, ptr %11, align 4, !tbaa !11
  store ptr %4, ptr %12, align 8, !tbaa !9
  store i32 %5, ptr %13, align 4, !tbaa !11
  %18 = load i32, ptr %13, align 4, !tbaa !11
  %19 = icmp sge i32 %18, 1
  br i1 %19, label %20, label %82

20:                                               ; preds = %6
  %21 = load i32, ptr %11, align 4, !tbaa !11
  %22 = icmp sle i32 %21, 1
  br i1 %22, label %23, label %82

23:                                               ; preds = %20
  %24 = load ptr, ptr %10, align 8, !tbaa !9
  %25 = getelementptr inbounds nuw %struct.lua_TValue, ptr %24, i32 0, i32 2
  %26 = load i32, ptr %25, align 4, !tbaa !13
  %27 = icmp eq i32 %26, 4
  br i1 %27, label %28, label %82

28:                                               ; preds = %23
  call void @llvm.lifetime.start.p0(i64 8, ptr %14) #17
  %29 = load ptr, ptr %10, align 8, !tbaa !9
  %30 = getelementptr inbounds nuw %struct.lua_TValue, ptr %29, i32 0, i32 0
  %31 = getelementptr inbounds [2 x float], ptr %30, i64 0, i64 0
  store ptr %31, ptr %14, align 8, !tbaa !72
  call void @llvm.lifetime.start.p0(i64 4, ptr %15) #17
  %32 = load ptr, ptr %14, align 8, !tbaa !72
  %33 = getelementptr inbounds float, ptr %32, i64 0
  %34 = load float, ptr %33, align 4, !tbaa !70
  %35 = load ptr, ptr %14, align 8, !tbaa !72
  %36 = getelementptr inbounds float, ptr %35, i64 0
  %37 = load float, ptr %36, align 4, !tbaa !70
  %38 = load ptr, ptr %14, align 8, !tbaa !72
  %39 = getelementptr inbounds float, ptr %38, i64 1
  %40 = load float, ptr %39, align 4, !tbaa !70
  %41 = load ptr, ptr %14, align 8, !tbaa !72
  %42 = getelementptr inbounds float, ptr %41, i64 1
  %43 = load float, ptr %42, align 4, !tbaa !70
  %44 = fmul float %40, %43
  %45 = call float @llvm.fmuladd.f32(float %34, float %37, float %44)
  %46 = load ptr, ptr %14, align 8, !tbaa !72
  %47 = getelementptr inbounds float, ptr %46, i64 2
  %48 = load float, ptr %47, align 4, !tbaa !70
  %49 = load ptr, ptr %14, align 8, !tbaa !72
  %50 = getelementptr inbounds float, ptr %49, i64 2
  %51 = load float, ptr %50, align 4, !tbaa !70
  %52 = call float @llvm.fmuladd.f32(float %48, float %51, float %45)
  %53 = call float @llvm.sqrt.f32(float %52)
  %54 = fdiv float 1.000000e+00, %53
  store float %54, ptr %15, align 4, !tbaa !70
  call void @llvm.lifetime.start.p0(i64 8, ptr %16) #17
  %55 = load ptr, ptr %9, align 8, !tbaa !9
  store ptr %55, ptr %16, align 8, !tbaa !9
  call void @llvm.lifetime.start.p0(i64 8, ptr %17) #17
  %56 = load ptr, ptr %16, align 8, !tbaa !9
  %57 = getelementptr inbounds nuw %struct.lua_TValue, ptr %56, i32 0, i32 0
  %58 = getelementptr inbounds [2 x float], ptr %57, i64 0, i64 0
  store ptr %58, ptr %17, align 8, !tbaa !72
  %59 = load ptr, ptr %14, align 8, !tbaa !72
  %60 = getelementptr inbounds float, ptr %59, i64 0
  %61 = load float, ptr %60, align 4, !tbaa !70
  %62 = load float, ptr %15, align 4, !tbaa !70
  %63 = fmul float %61, %62
  %64 = load ptr, ptr %17, align 8, !tbaa !72
  %65 = getelementptr inbounds float, ptr %64, i64 0
  store float %63, ptr %65, align 4, !tbaa !70
  %66 = load ptr, ptr %14, align 8, !tbaa !72
  %67 = getelementptr inbounds float, ptr %66, i64 1
  %68 = load float, ptr %67, align 4, !tbaa !70
  %69 = load float, ptr %15, align 4, !tbaa !70
  %70 = fmul float %68, %69
  %71 = load ptr, ptr %17, align 8, !tbaa !72
  %72 = getelementptr inbounds float, ptr %71, i64 1
  store float %70, ptr %72, align 4, !tbaa !70
  %73 = load ptr, ptr %14, align 8, !tbaa !72
  %74 = getelementptr inbounds float, ptr %73, i64 2
  %75 = load float, ptr %74, align 4, !tbaa !70
  %76 = load float, ptr %15, align 4, !tbaa !70
  %77 = fmul float %75, %76
  %78 = load ptr, ptr %17, align 8, !tbaa !72
  %79 = getelementptr inbounds float, ptr %78, i64 2
  store float %77, ptr %79, align 4, !tbaa !70
  %80 = load ptr, ptr %16, align 8, !tbaa !9
  %81 = getelementptr inbounds nuw %struct.lua_TValue, ptr %80, i32 0, i32 2
  store i32 4, ptr %81, align 4, !tbaa !13
  call void @llvm.lifetime.end.p0(i64 8, ptr %17) #17
  call void @llvm.lifetime.end.p0(i64 8, ptr %16) #17
  store i32 1, ptr %7, align 4
  call void @llvm.lifetime.end.p0(i64 4, ptr %15) #17
  call void @llvm.lifetime.end.p0(i64 8, ptr %14) #17
  br label %83

82:                                               ; preds = %23, %20, %6
  store i32 -1, ptr %7, align 4
  br label %83

83:                                               ; preds = %82, %28
  %84 = load i32, ptr %7, align 4
  ret i32 %84
}